target datalayout = "e-m:e-p270:32:32-p271:32:32-p272:64:64-i64:64-i128:128-f80:128-n8:16:32:64-S128"
target triple = "x86_64-pc-linux-gnu"

%"class.ODDLParser::Value::Iterator" = type { ptr, ptr }
%"class.ODDLParser::Value" = type { i32, i64, ptr, ptr }

; Function Attrs: mustprogress nounwind uwtable
define hidden noundef ptr @_ZNK10ODDLParser5Value7getNextEv(ptr noundef nonnull align 8 dereferenceable(32) %0) #2 align 2 {
  %2 = alloca ptr, align 8
  store ptr %0, ptr %2, align 8
  %3 = load ptr, ptr %2, align 8
  %4 = getelementptr inbounds nuw %"class.ODDLParser::Value", ptr %3, i32 0, i32 3
  %5 = load ptr, ptr %4, align 8
  ret ptr %5
}

; Function Attrs: mustprogress uwtable
define hidden noundef zeroext i1 @_ZNK10ODDLParser5Value8Iterator7hasNextEv(ptr noundef nonnull align 8 dereferenceable(16) %0) #3 align 2 {
  %2 = alloca i1, align 1
  %3 = alloca ptr, align 8
  store ptr %0, ptr %3, align 8
  %4 = load ptr, ptr %3, align 8
  %5 = getelementptr inbounds nuw %"class.ODDLParser::Value::Iterator", ptr %4, i32 0, i32 1
  %6 = load ptr, ptr %5, align 8
  %7 = icmp eq ptr null, %6
  br i1 %7, label %8, label %9

8:                                                ; preds = %1
  store i1 false, ptr %2, align 1
  br label %14

9:                                                ; preds = %1
  %10 = getelementptr inbounds nuw %"class.ODDLParser::Value::Iterator", ptr %4, i32 0, i32 1
  %11 = load ptr, ptr %10, align 8
  %12 = call noundef ptr @_ZNK10ODDLParser5Value7getNextEv(ptr noundef nonnull align 8 dereferenceable(32) %11)
  %13 = icmp ne ptr null, %12
  store i1 %13, ptr %2, align 1
  br label %14

14:                                               ; preds = %9, %8
  %15 = load i1, ptr %2, align 1
  ret i1 %15
}

; Function Attrs: mustprogress uwtable
define hidden noundef ptr @_ZN10ODDLParser5Value8Iterator7getNextEv(ptr noundef nonnull align 8 dereferenceable(16) %0) #3 align 2 {
  %2 = alloca ptr, align 8
  %3 = alloca ptr, align 8
  %4 = alloca ptr, align 8
  store ptr %0, ptr %3, align 8
  %5 = load ptr, ptr %3, align 8
  %6 = call noundef zeroext i1 @_ZNK10ODDLParser5Value8Iterator7hasNextEv(ptr noundef nonnull align 8 dereferenceable(16) %5)
  br i1 %6, label %8, label %7

7:                                                ; preds = %1
  store ptr null, ptr %2, align 8
  br label %15

8:                                                ; preds = %1
  call void @llvm.lifetime.start.p0(i64 8, ptr %4) #1
  %9 = getelementptr inbounds nuw %"class.ODDLParser::Value::Iterator", ptr %5, i32 0, i32 1
  %10 = load ptr, ptr %9, align 8
  %11 = call noundef ptr @_ZNK10ODDLParser5Value7getNextEv(ptr noundef nonnull align 8 dereferenceable(32) %10)
  store ptr %11, ptr %4, align 8
  %12 = load ptr, ptr %4, align 8
  %13 = getelementptr inbounds nuw %"class.ODDLParser::Value::Iterator", ptr %5, i32 0, i32 1
  store ptr %12, ptr %13, align 8
  %14 = load ptr, ptr %4, align 8
  store ptr %14, ptr %2, align 8
  call void @llvm.lifetime.end.p0(i64 8, ptr %4) #1
  br label %15

15:                                               ; preds = %8, %7
  %16 = load ptr, ptr %2, align 8
  ret ptr %16
}