; Function Attrs: mustprogress nofree norecurse nosync nounwind willreturn memory(read, argmem: readwrite, inaccessiblemem: none) uwtable
define hidden noundef ptr @_ZN10ODDLParser5Value8Iterator7getNextEv(ptr noundef nonnull align 8 captures(none) dereferenceable(16) %0) local_unnamed_addr #5 align 2 {
  %2 = getelementptr inbounds nuw i8, ptr %0, i64 8
  %3 = load ptr, ptr %2, align 8
  %4 = icmp eq ptr %3, null
  br i1 %4, label %_ZNK10ODDLParser5Value8Iterator7hasNextEv.exit.thread, label %_ZNK10ODDLParser5Value8Iterator7hasNextEv.exit

_ZNK10ODDLParser5Value8Iterator7hasNextEv.exit:   ; preds = %1
  %5 = getelementptr inbounds nuw i8, ptr %3, i64 24
  %6 = load ptr, ptr %5, align 8
  %.not = icmp eq ptr %6, null
  br i1 %.not, label %_ZNK10ODDLParser5Value8Iterator7hasNextEv.exit.thread, label %7

7:                                                ; preds = %_ZNK10ODDLParser5Value8Iterator7hasNextEv.exit
  store ptr %6, ptr %2, align 8
  br label %_ZNK10ODDLParser5Value8Iterator7hasNextEv.exit.thread

_ZNK10ODDLParser5Value8Iterator7hasNextEv.exit.thread: ; preds = %1, %_ZNK10ODDLParser5Value8Iterator7hasNextEv.exit, %7
  %.0 = phi ptr [ %6, %7 ], [ null, %_ZNK10ODDLParser5Value8Iterator7hasNextEv.exit ], [ null, %1 ]
  ret ptr %.0
}